target datalayout = "e-m:e-p270:32:32-p271:32:32-p272:64:64-i64:64-i128:128-f80:128-n8:16:32:64-S128"
target triple = "x86_64-pc-linux-gnu"

%class.macro_util = type { ptr, %class.bv_util, %class.arith_util, %class.arith_rewriter, %class.bv_rewriter, ptr, ptr }
%class.bv_util = type { %class.bv_recognizers, ptr, ptr }
%class.bv_recognizers = type { i32 }
%class.arith_util = type { ptr, ptr }
%class.arith_rewriter = type { %class.poly_rewriter.base, i8, i8, i8, i8, i8, i8, i8, i8, i32 }
%class.poly_rewriter.base = type <{ %class.arith_rewriter_core.base, [5 x i8], ptr, %class.obj_map, i8, i8, [2 x i8], i32, i8, i8, i8, i8 }>
%class.arith_rewriter_core.base = type <{ ptr, %class.arith_util, %class.scoped_ptr, i8, i8, i8 }>
%class.scoped_ptr = type { ptr }
%class.obj_map = type { %class.core_hashtable }
%class.core_hashtable = type <{ ptr, i32, i32, i32, [4 x i8] }>
%class.bv_rewriter = type <{ %class.poly_rewriter.base.1, [4 x i8], %class.mk_extract_proc, %class.arith_util, i8, i8, i8, i8, i8, i8, i8, i8, i8, i8, i8, i8, i8, [3 x i8] }>
%class.poly_rewriter.base.1 = type <{ %class.bv_rewriter_core, ptr, %class.obj_map, i8, i8, [2 x i8], i32, i8, i8, i8, i8 }>
%class.bv_rewriter_core = type { ptr, %class.bv_util, %class.obj_ref }
%class.obj_ref = type { ptr, ptr }
%class.mk_extract_proc = type { ptr, i32, i32, ptr, ptr }
%class.app = type { %class.expr, ptr, i32, %struct.app_flags, [0 x ptr] }
%class.expr = type { %class.ast }
%class.ast = type { i32, i32, i32, i32 }
%struct.app_flags = type <{ i16, i8, i8 }>
%class.symbol = type { ptr }
%class.decl = type { %class.ast, %class.symbol, ptr }
%class.decl_info = type <{ i32, i32, %class.vector.64, i8, [7 x i8] }>
%class.vector.64 = type { ptr }

; Function Attrs: mustprogress nounwind uwtable
define linkonce_odr hidden noundef zeroext i1 @_ZNK9decl_info10is_decl_ofEii(ptr noundef nonnull align 8 dereferenceable(17) %0, i32 noundef %1, i32 noundef %2) #7 comdat align 2 {
  %4 = alloca ptr, align 8
  %5 = alloca i32, align 4
  %6 = alloca i32, align 4
  store ptr %0, ptr %4, align 8, !tbaa !371
  store i32 %1, ptr %5, align 4, !tbaa !67
  store i32 %2, ptr %6, align 4, !tbaa !67
  %7 = load ptr, ptr %4, align 8
  %8 = getelementptr inbounds nuw %class.decl_info, ptr %7, i32 0, i32 0
  %9 = load i32, ptr %8, align 8, !tbaa !372
  %10 = load i32, ptr %5, align 4, !tbaa !67
  %11 = icmp eq i32 %9, %10
  br i1 %11, label %12, label %17

12:                                               ; preds = %3
  %13 = load i32, ptr %6, align 4, !tbaa !67
  %14 = getelementptr inbounds nuw %class.decl_info, ptr %7, i32 0, i32 1
  %15 = load i32, ptr %14, align 4, !tbaa !376
  %16 = icmp eq i32 %13, %15
  br label %17

17:                                               ; preds = %12, %3
  %18 = phi i1 [ false, %3 ], [ %16, %12 ]
  ret i1 %18
}

; Function Attrs: mustprogress uwtable
define linkonce_odr hidden noundef zeroext i1 @_ZNK4decl10is_decl_ofEii(ptr noundef nonnull align 8 dereferenceable(32) %0, i32 noundef %1, i32 noundef %2) #4 comdat align 2 {
  %4 = alloca ptr, align 8
  %5 = alloca i32, align 4
  %6 = alloca i32, align 4
  store ptr %0, ptr %4, align 8, !tbaa !366
  store i32 %1, ptr %5, align 4, !tbaa !67
  store i32 %2, ptr %6, align 4, !tbaa !67
  %7 = load ptr, ptr %4, align 8
  %8 = getelementptr inbounds nuw %class.decl, ptr %7, i32 0, i32 2
  %9 = load ptr, ptr %8, align 8, !tbaa !368
  %10 = icmp ne ptr %9, null
  br i1 %10, label %11, label %17

11:                                               ; preds = %3
  %12 = getelementptr inbounds nuw %class.decl, ptr %7, i32 0, i32 2
  %13 = load ptr, ptr %12, align 8, !tbaa !368
  %14 = load i32, ptr %5, align 4, !tbaa !67
  %15 = load i32, ptr %6, align 4, !tbaa !67
  %16 = call noundef zeroext i1 @_ZNK9decl_info10is_decl_ofEii(ptr noundef nonnull align 8 dereferenceable(17) %13, i32 noundef %14, i32 noundef %15)
  br label %17

17:                                               ; preds = %11, %3
  %18 = phi i1 [ false, %3 ], [ %16, %11 ]
  ret i1 %18
}

; Function Attrs: mustprogress uwtable
define linkonce_odr hidden noundef zeroext i1 @_ZNK3app9is_app_ofEii(ptr noundef nonnull align 8 dereferenceable(32) %0, i32 noundef %1, i32 noundef %2) #4 comdat align 2 {
  %4 = alloca ptr, align 8
  %5 = alloca i32, align 4
  %6 = alloca i32, align 4
  store ptr %0, ptr %4, align 8, !tbaa !84
  store i32 %1, ptr %5, align 4, !tbaa !67
  store i32 %2, ptr %6, align 4, !tbaa !67
  %7 = load ptr, ptr %4, align 8
  %8 = getelementptr inbounds nuw %class.app, ptr %7, i32 0, i32 1
  %9 = load ptr, ptr %8, align 8, !tbaa !86
  %10 = load i32, ptr %5, align 4, !tbaa !67
  %11 = load i32, ptr %6, align 4, !tbaa !67
  %12 = call noundef zeroext i1 @_ZNK4decl10is_decl_ofEii(ptr noundef nonnull align 8 dereferenceable(32) %9, i32 noundef %10, i32 noundef %11)
  ret i1 %12
}

; Function Attrs: inlinehint mustprogress nounwind uwtable
define linkonce_odr hidden noundef ptr @_Z6to_appPK3ast(ptr noundef %0) #8 comdat {
  %2 = alloca ptr, align 8
  store ptr %0, ptr %2, align 8, !tbaa !82
  %3 = load ptr, ptr %2, align 8, !tbaa !82
  ret ptr %3
}

; Function Attrs: mustprogress nounwind uwtable
define linkonce_odr hidden noundef i32 @_ZNK3ast8get_kindEv(ptr noundef nonnull align 4 dereferenceable(16) %0) #7 comdat align 2 {
  %2 = alloca ptr, align 8
  store ptr %0, ptr %2, align 8, !tbaa !82
  %3 = load ptr, ptr %2, align 8
  %4 = getelementptr inbounds nuw %class.ast, ptr %3, i32 0, i32 1
  %5 = load i32, ptr %4, align 4
  %6 = and i32 %5, 65535
  ret i32 %6
}

; Function Attrs: mustprogress nounwind uwtable
define linkonce_odr hidden noundef i32 @_ZNK14bv_recognizers7get_fidEv(ptr noundef nonnull align 4 dereferenceable(4) %0) #7 comdat align 2 {
  %2 = alloca ptr, align 8
  store ptr %0, ptr %2, align 8, !tbaa !51
  %3 = load ptr, ptr %2, align 8
  %4 = getelementptr inbounds nuw %class.bv_recognizers, ptr %3, i32 0, i32 0
  %5 = load i32, ptr %4, align 4, !tbaa !377
  ret i32 %5
}

; Function Attrs: inlinehint mustprogress uwtable
define linkonce_odr hidden noundef zeroext i1 @_Z9is_app_ofPK4exprii(ptr noundef %0, i32 noundef %1, i32 noundef %2) #9 comdat {
  %4 = alloca ptr, align 8
  %5 = alloca i32, align 4
  %6 = alloca i32, align 4
  store ptr %0, ptr %4, align 8, !tbaa !50
  store i32 %1, ptr %5, align 4, !tbaa !67
  store i32 %2, ptr %6, align 4, !tbaa !67
  %7 = load ptr, ptr %4, align 8, !tbaa !50
  %8 = call noundef i32 @_ZNK3ast8get_kindEv(ptr noundef nonnull align 4 dereferenceable(16) %7)
  %9 = icmp eq i32 %8, 0
  br i1 %9, label %10, label %16

10:                                               ; preds = %3
  %11 = load ptr, ptr %4, align 8, !tbaa !50
  %12 = call noundef ptr @_Z6to_appPK3ast(ptr noundef %11)
  %13 = load i32, ptr %5, align 4, !tbaa !67
  %14 = load i32, ptr %6, align 4, !tbaa !67
  %15 = call noundef zeroext i1 @_ZNK3app9is_app_ofEii(ptr noundef nonnull align 8 dereferenceable(32) %12, i32 noundef %13, i32 noundef %14)
  br label %16

16:                                               ; preds = %10, %3
  %17 = phi i1 [ false, %3 ], [ %15, %10 ]
  ret i1 %17
}

; Function Attrs: mustprogress uwtable
define linkonce_odr hidden noundef zeroext i1 @_ZNK14bv_recognizers9is_bv_addEPK4expr(ptr noundef nonnull align 4 dereferenceable(4) %0, ptr noundef %1) #4 comdat align 2 {
  %3 = alloca ptr, align 8
  %4 = alloca ptr, align 8
  store ptr %0, ptr %3, align 8, !tbaa !51
  store ptr %1, ptr %4, align 8, !tbaa !50
  %5 = load ptr, ptr %3, align 8
  %6 = load ptr, ptr %4, align 8, !tbaa !50
  %7 = call noundef i32 @_ZNK14bv_recognizers7get_fidEv(ptr noundef nonnull align 4 dereferenceable(4) %5)
  %8 = call noundef zeroext i1 @_Z9is_app_ofPK4exprii(ptr noundef %6, i32 noundef %7, i32 noundef 4)
  ret i1 %8
}

; Function Attrs: mustprogress uwtable
define linkonce_odr hidden noundef zeroext i1 @_ZNK17arith_recognizers6is_addEPK4expr(ptr noundef nonnull align 1 dereferenceable(1) %0, ptr noundef %1) #4 comdat align 2 {
  %3 = alloca ptr, align 8
  %4 = alloca ptr, align 8
  store ptr %0, ptr %3, align 8, !tbaa !54
  store ptr %1, ptr %4, align 8, !tbaa !50
  %5 = load ptr, ptr %4, align 8, !tbaa !50
  %6 = call noundef zeroext i1 @_Z9is_app_ofPK4exprii(ptr noundef %5, i32 noundef 5, i32 noundef 6)
  ret i1 %6
}

; Function Attrs: mustprogress nounwind uwtable
define linkonce_odr hidden noundef ptr @_ZNK3app8get_argsEv(ptr noundef nonnull align 8 dereferenceable(32) %0) #7 comdat align 2 {
  %2 = alloca ptr, align 8
  store ptr %0, ptr %2, align 8, !tbaa !84
  %3 = load ptr, ptr %2, align 8
  %4 = getelementptr inbounds nuw %class.app, ptr %3, i32 0, i32 4
  %5 = getelementptr inbounds [0 x ptr], ptr %4, i64 0, i64 0
  ret ptr %5
}

; Function Attrs: mustprogress nounwind uwtable
define linkonce_odr hidden noundef i32 @_ZNK3app12get_num_argsEv(ptr noundef nonnull align 8 dereferenceable(32) %0) #7 comdat align 2 {
  %2 = alloca ptr, align 8
  store ptr %0, ptr %2, align 8, !tbaa !84
  %3 = load ptr, ptr %2, align 8
  %4 = getelementptr inbounds nuw %class.app, ptr %3, i32 0, i32 2
  %5 = load i32, ptr %4, align 8, !tbaa !92
  ret i32 %5
}

; Function Attrs: inlinehint mustprogress nounwind uwtable
define linkonce_odr hidden noundef ptr @_Z6to_appP3ast(ptr noundef %0) #8 comdat {
  %2 = alloca ptr, align 8
  store ptr %0, ptr %2, align 8, !tbaa !82
  %3 = load ptr, ptr %2, align 8, !tbaa !82
  ret ptr %3
}

; Function Attrs: mustprogress uwtable
define hidden noundef zeroext i1 @_ZNK10macro_util6is_addEP4expr(ptr noundef nonnull align 8 dereferenceable(320) %0, ptr noundef %1) #4 align 2 {
  %3 = alloca ptr, align 8
  %4 = alloca ptr, align 8
  store ptr %0, ptr %3, align 8, !tbaa !3
  store ptr %1, ptr %4, align 8, !tbaa !50
  %5 = load ptr, ptr %3, align 8
  %6 = getelementptr inbounds nuw %class.macro_util, ptr %5, i32 0, i32 2
  %7 = load ptr, ptr %4, align 8, !tbaa !50
  %8 = call noundef zeroext i1 @_ZNK17arith_recognizers6is_addEPK4expr(ptr noundef nonnull align 1 dereferenceable(1) %6, ptr noundef %7)
  br i1 %8, label %13, label %9

9:                                                ; preds = %2
  %10 = getelementptr inbounds nuw %class.macro_util, ptr %5, i32 0, i32 1
  %11 = load ptr, ptr %4, align 8, !tbaa !50
  %12 = call noundef zeroext i1 @_ZNK14bv_recognizers9is_bv_addEPK4expr(ptr noundef nonnull align 4 dereferenceable(4) %10, ptr noundef %11)
  br label %13

13:                                               ; preds = %9, %2
  %14 = phi i1 [ true, %2 ], [ %12, %9 ]
  ret i1 %14
}

; Function Attrs: mustprogress uwtable
define hidden noundef zeroext i1 @_ZNK10macro_util18poly_contains_headEP4exprP9func_declS1_(ptr noundef nonnull align 8 dereferenceable(320) %0, ptr noundef %1, ptr noundef %2, ptr noundef %3) #4 align 2 {
  %5 = alloca i1, align 1
  %6 = alloca ptr, align 8
  %7 = alloca ptr, align 8
  %8 = alloca ptr, align 8
  %9 = alloca ptr, align 8
  %10 = alloca i32, align 4
  %11 = alloca ptr, align 8
  %12 = alloca i32, align 4
  %13 = alloca i32, align 4
  %14 = alloca ptr, align 8
  store ptr %0, ptr %6, align 8, !tbaa !3
  store ptr %1, ptr %7, align 8, !tbaa !50
  store ptr %2, ptr %8, align 8, !tbaa !91
  store ptr %3, ptr %9, align 8, !tbaa !50
  %15 = load ptr, ptr %6, align 8
  call void @llvm.lifetime.start.p0(i64 4, ptr %10) #3
  call void @llvm.lifetime.start.p0(i64 8, ptr %11) #3
  %16 = load ptr, ptr %7, align 8, !tbaa !50
  %17 = call noundef zeroext i1 @_ZNK10macro_util6is_addEP4expr(ptr noundef nonnull align 8 dereferenceable(320) %15, ptr noundef %16)
  br i1 %17, label %18, label %25

18:                                               ; preds = %4
  %19 = load ptr, ptr %7, align 8, !tbaa !50
  %20 = call noundef ptr @_Z6to_appP3ast(ptr noundef %19)
  %21 = call noundef i32 @_ZNK3app12get_num_argsEv(ptr noundef nonnull align 8 dereferenceable(32) %20)
  store i32 %21, ptr %10, align 4, !tbaa !67
  %22 = load ptr, ptr %7, align 8, !tbaa !50
  %23 = call noundef ptr @_Z6to_appP3ast(ptr noundef %22)
  %24 = call noundef ptr @_ZNK3app8get_argsEv(ptr noundef nonnull align 8 dereferenceable(32) %23)
  store ptr %24, ptr %11, align 8, !tbaa !56
  br label %26

25:                                               ; preds = %4
  store i32 1, ptr %10, align 4, !tbaa !67
  store ptr %7, ptr %11, align 8, !tbaa !56
  br label %26

26:                                               ; preds = %25, %18
  call void @llvm.lifetime.start.p0(i64 4, ptr %12) #3
  store i32 0, ptr %12, align 4, !tbaa !67
  br label %27

27:                                               ; preds = %50, %26
  %28 = load i32, ptr %12, align 4, !tbaa !67
  %29 = load i32, ptr %10, align 4, !tbaa !67
  %30 = icmp ult i32 %28, %29
  br i1 %30, label %32, label %31

31:                                               ; preds = %27
  store i32 2, ptr %13, align 4
  br label %53

32:                                               ; preds = %27
  call void @llvm.lifetime.start.p0(i64 8, ptr %14) #3
  %33 = load ptr, ptr %11, align 8, !tbaa !56
  %34 = load i32, ptr %12, align 4, !tbaa !67
  %35 = zext i32 %34 to i64
  %36 = getelementptr inbounds nuw ptr, ptr %33, i64 %35
  %37 = load ptr, ptr %36, align 8, !tbaa !50
  store ptr %37, ptr %14, align 8, !tbaa !50
  %38 = load ptr, ptr %14, align 8, !tbaa !50
  %39 = load ptr, ptr %9, align 8, !tbaa !50
  %40 = icmp ne ptr %38, %39
  br i1 %40, label %41, label %46

41:                                               ; preds = %32
  %42 = load ptr, ptr %8, align 8, !tbaa !91
  %43 = load ptr, ptr %14, align 8, !tbaa !50
  %44 = call noundef zeroext i1 @_Z6occursP9func_declP4expr(ptr noundef %42, ptr noundef %43)
  br i1 %44, label %45, label %46

45:                                               ; preds = %41
  store i1 true, ptr %5, align 1
  store i32 1, ptr %13, align 4
  br label %47

46:                                               ; preds = %41, %32
  store i32 0, ptr %13, align 4
  br label %47

47:                                               ; preds = %46, %45
  call void @llvm.lifetime.end.p0(i64 8, ptr %14) #3
  %48 = load i32, ptr %13, align 4
  switch i32 %48, label %53 [
    i32 0, label %49
  ]

49:                                               ; preds = %47
  br label %50

50:                                               ; preds = %49
  %51 = load i32, ptr %12, align 4, !tbaa !67
  %52 = add i32 %51, 1
  store i32 %52, ptr %12, align 4, !tbaa !67
  br label %27, !llvm.loop !113

53:                                               ; preds = %47, %31
  call void @llvm.lifetime.end.p0(i64 4, ptr %12) #3
  %54 = load i32, ptr %13, align 4
  switch i32 %54, label %56 [
    i32 2, label %55
  ]

55:                                               ; preds = %53
  store i1 false, ptr %5, align 1
  store i32 1, ptr %13, align 4
  br label %56

56:                                               ; preds = %55, %53
  call void @llvm.lifetime.end.p0(i64 8, ptr %11) #3
  call void @llvm.lifetime.end.p0(i64 4, ptr %10) #3
  %57 = load i1, ptr %5, align 1
  ret i1 %57
}