; Function Attrs: mustprogress uwtable
define hidden noundef zeroext i1 @_ZNK10macro_util18poly_contains_headEP4exprP9func_declS1_(ptr noundef nonnull readonly align 8 captures(none) dereferenceable(320) %0, ptr noundef %1, ptr noundef %2, ptr noundef readnone captures(address) %3) local_unnamed_addr #3 align 2 {
  %5 = alloca ptr, align 8
  store ptr %1, ptr %5, align 8, !tbaa !73
  %6 = getelementptr inbounds nuw i8, ptr %1, i64 4
  %7 = load i32, ptr %6, align 4
  %8 = and i32 %7, 65535
  %9 = icmp eq i32 %8, 0
  br i1 %9, label %10, label %.lr.ph.preheader

10:                                               ; preds = %4
  %11 = getelementptr inbounds nuw i8, ptr %1, i64 16
  %12 = load ptr, ptr %11, align 8, !tbaa !50
  %13 = getelementptr inbounds nuw i8, ptr %12, i64 24
  %14 = load ptr, ptr %13, align 8, !tbaa !55
  %.not.i.i.i.i.i = icmp eq ptr %14, null
  br i1 %.not.i.i.i.i.i, label %.lr.ph.preheader, label %_ZNK17arith_recognizers6is_addEPK4expr.exit.i

_ZNK17arith_recognizers6is_addEPK4expr.exit.i:    ; preds = %10
  %15 = load i32, ptr %14, align 8, !tbaa !60
  %16 = icmp eq i32 %15, 5
  %17 = getelementptr inbounds nuw i8, ptr %14, i64 4
  %18 = load i32, ptr %17, align 4
  %19 = icmp eq i32 %18, 6
  %20 = select i1 %16, i1 %19, i1 false
  br i1 %20, label %_ZNK10macro_util6is_addEP4expr.exit.thread, label %_ZNK10macro_util6is_addEP4expr.exit

_ZNK10macro_util6is_addEP4expr.exit:              ; preds = %_ZNK17arith_recognizers6is_addEPK4expr.exit.i
  %.in.i = getelementptr inbounds nuw i8, ptr %0, i64 8
  %21 = load i32, ptr %.in.i, align 8, !tbaa !64
  %22 = icmp eq i32 %15, %21
  %23 = icmp eq i32 %18, 4
  %24 = select i1 %22, i1 %23, i1 false
  br i1 %24, label %_ZNK10macro_util6is_addEP4expr.exit.thread, label %.lr.ph.preheader

_ZNK10macro_util6is_addEP4expr.exit.thread:       ; preds = %_ZNK10macro_util6is_addEP4expr.exit, %_ZNK17arith_recognizers6is_addEPK4expr.exit.i
  %25 = getelementptr inbounds nuw i8, ptr %1, i64 24
  %26 = load i32, ptr %25, align 8, !tbaa !79
  %27 = getelementptr inbounds nuw i8, ptr %1, i64 32
  %.not1923.not = icmp eq i32 %26, 0
  br i1 %.not1923.not, label %.critedge21, label %.lr.ph.preheader

.lr.ph.preheader:                                 ; preds = %10, %4, %_ZNK10macro_util6is_addEP4expr.exit, %_ZNK10macro_util6is_addEP4expr.exit.thread
  %.01633 = phi ptr [ %27, %_ZNK10macro_util6is_addEP4expr.exit.thread ], [ %5, %_ZNK10macro_util6is_addEP4expr.exit ], [ %5, %4 ], [ %5, %10 ]
  %.01732 = phi i32 [ %26, %_ZNK10macro_util6is_addEP4expr.exit.thread ], [ 1, %_ZNK10macro_util6is_addEP4expr.exit ], [ 1, %4 ], [ 1, %10 ]
  %wide.trip.count = zext i32 %.01732 to i64
  br label %.lr.ph

.lr.ph:                                           ; preds = %.lr.ph.preheader, %.critedge
  %indvars.iv = phi i64 [ 0, %.lr.ph.preheader ], [ %indvars.iv.next, %.critedge ]
  %28 = getelementptr inbounds nuw ptr, ptr %.01633, i64 %indvars.iv
  %29 = load ptr, ptr %28, align 8, !tbaa !73
  %.not = icmp eq ptr %29, %3
  br i1 %.not, label %.critedge, label %30

30:                                               ; preds = %.lr.ph
  %31 = tail call noundef zeroext i1 @_Z6occursP9func_declP4expr(ptr noundef %2, ptr noundef %29)
  br i1 %31, label %.critedge21, label %.critedge

.critedge:                                        ; preds = %30, %.lr.ph
  %indvars.iv.next = add nuw nsw i64 %indvars.iv, 1
  %exitcond.not = icmp eq i64 %indvars.iv.next, %wide.trip.count
  br i1 %exitcond.not, label %.critedge21, label %.lr.ph, !llvm.loop !109

.critedge21:                                      ; preds = %30, %.critedge, %_ZNK10macro_util6is_addEP4expr.exit.thread
  %.not19.lcssa = phi i1 [ false, %_ZNK10macro_util6is_addEP4expr.exit.thread ], [ false, %.critedge ], [ true, %30 ]
  ret i1 %.not19.lcssa
}